target datalayout = "e-m:e-p270:32:32-p271:32:32-p272:64:64-i64:64-i128:128-f80:128-n8:16:32:64-S128"
target triple = "x86_64-pc-linux-gnu"

@db_conn = external global ptr, align 8
@.str.40 = private unnamed_addr constant [2 x i8] c"\0A\00", align 1
@.str.176 = private unnamed_addr constant [13 x i8] c"User,Account\00", align 1
@.str.177 = private unnamed_addr constant [19 x i8] c"Account,ParentName\00", align 1
@.str.178 = private unnamed_addr constant [132 x i8] c"Share,GrpTRESM,GrpTRESR,GrpTRES,GrpJ,GrpJobsA,GrpMEM,GrpN,GrpS,GrpW,MaxTRESM,MaxTRES,MaxTRESPerN,MaxJ,MaxS,MaxN,MaxW,QOS,DefaultQOS\00", align 1
@.str.179 = private unnamed_addr constant [65 x i8] c"--------------------------------------------------------------\0A\0A\00", align 1

; Function Attrs: nounwind uwtable
define internal i32 @_print_out_assoc(ptr noundef %0, i1 noundef zeroext %1, i1 noundef zeroext %2) #0 {
  %4 = alloca i32, align 4
  %5 = alloca ptr, align 8
  %6 = alloca i8, align 1
  %7 = alloca i8, align 1
  %8 = alloca ptr, align 8
  %9 = alloca ptr, align 8
  %10 = alloca ptr, align 8
  %11 = alloca ptr, align 8
  %12 = alloca ptr, align 8
  %13 = alloca ptr, align 8
  %14 = alloca i32, align 4
  %15 = alloca i32, align 4
  store ptr %0, ptr %5, align 8
  %16 = zext i1 %1 to i8
  store i8 %16, ptr %6, align 1
  %17 = zext i1 %2 to i8
  store i8 %17, ptr %7, align 1
  call void @llvm.lifetime.start.p0(i64 8, ptr %8) #9
  store ptr null, ptr %8, align 8
  call void @llvm.lifetime.start.p0(i64 8, ptr %9) #9
  store ptr null, ptr %9, align 8
  call void @llvm.lifetime.start.p0(i64 8, ptr %10) #9
  call void @llvm.lifetime.start.p0(i64 8, ptr %11) #9
  call void @llvm.lifetime.start.p0(i64 8, ptr %12) #9
  store ptr null, ptr %12, align 8
  call void @llvm.lifetime.start.p0(i64 8, ptr %13) #9
  store ptr null, ptr %13, align 8
  call void @llvm.lifetime.start.p0(i64 4, ptr %14) #9
  store i32 0, ptr %14, align 4
  %18 = load ptr, ptr %5, align 8
  %19 = icmp ne ptr %18, null
  br i1 %19, label %20, label %24

20:                                               ; preds = %3
  %21 = load ptr, ptr %5, align 8
  %22 = call i32 @list_count(ptr noundef %21)
  %23 = icmp ne i32 %22, 0
  br i1 %23, label %26, label %24

24:                                               ; preds = %20, %3
  %25 = load i32, ptr %14, align 4
  store i32 %25, ptr %4, align 4
  store i32 1, ptr %15, align 4
  br label %89

26:                                               ; preds = %20
  %27 = call ptr @list_create(ptr noundef @xfree_ptr)
  store ptr %27, ptr %8, align 8
  %28 = load i8, ptr %6, align 1, !range !18, !noundef !19
  %29 = trunc i8 %28 to i1
  br i1 %29, label %30, label %33

30:                                               ; preds = %26
  %31 = load ptr, ptr %8, align 8
  %32 = call i32 @slurm_addto_char_list(ptr noundef %31, ptr noundef @.str.176)
  br label %36

33:                                               ; preds = %26
  %34 = load ptr, ptr %8, align 8
  %35 = call i32 @slurm_addto_char_list(ptr noundef %34, ptr noundef @.str.177)
  br label %36

36:                                               ; preds = %33, %30
  %37 = load ptr, ptr %8, align 8
  %38 = call i32 @slurm_addto_char_list(ptr noundef %37, ptr noundef @.str.178)
  %39 = load ptr, ptr %8, align 8
  %40 = call ptr @sacctmgr_process_format_list(ptr noundef %39)
  store ptr %40, ptr %9, align 8
  br label %41

41:                                               ; preds = %36
  %42 = load ptr, ptr %8, align 8
  %43 = icmp ne ptr %42, null
  br i1 %43, label %44, label %46

44:                                               ; preds = %41
  %45 = load ptr, ptr %8, align 8
  call void @list_destroy(ptr noundef %45)
  br label %46

46:                                               ; preds = %44, %41
  store ptr null, ptr %8, align 8
  br label %47

47:                                               ; preds = %46
  br label %48

48:                                               ; preds = %47
  %49 = load ptr, ptr %9, align 8
  call void @print_fields_header(ptr noundef %49)
  %50 = load ptr, ptr %5, align 8
  %51 = call ptr @list_iterator_create(ptr noundef %50)
  store ptr %51, ptr %10, align 8
  %52 = load ptr, ptr %9, align 8
  %53 = call ptr @list_iterator_create(ptr noundef %52)
  store ptr %53, ptr %11, align 8
  br label %54

54:                                               ; preds = %66, %48
  %55 = load ptr, ptr %10, align 8
  %56 = call ptr @list_next(ptr noundef %55)
  store ptr %56, ptr %13, align 8
  %57 = icmp ne ptr %56, null
  br i1 %57, label %58, label %69

58:                                               ; preds = %54
  br label %59

59:                                               ; preds = %63, %58
  %60 = load ptr, ptr %11, align 8
  %61 = call ptr @list_next(ptr noundef %60)
  store ptr %61, ptr %12, align 8
  %62 = icmp ne ptr %61, null
  br i1 %62, label %63, label %66

63:                                               ; preds = %59
  %64 = load ptr, ptr %13, align 8
  %65 = load ptr, ptr %12, align 8
  call void @sacctmgr_print_assoc_rec(ptr noundef %64, ptr noundef %65, ptr noundef null, i1 noundef zeroext false)
  br label %59, !llvm.loop !27

66:                                               ; preds = %59
  %67 = load ptr, ptr %11, align 8
  call void @list_iterator_reset(ptr noundef %67)
  %68 = call i32 (ptr, ...) @printf(ptr noundef @.str.40)
  br label %54, !llvm.loop !28

69:                                               ; preds = %54
  %70 = load ptr, ptr %10, align 8
  call void @list_iterator_destroy(ptr noundef %70)
  %71 = load ptr, ptr %11, align 8
  call void @list_iterator_destroy(ptr noundef %71)
  br label %72

72:                                               ; preds = %69
  %73 = load ptr, ptr %9, align 8
  %74 = icmp ne ptr %73, null
  br i1 %74, label %75, label %77

75:                                               ; preds = %72
  %76 = load ptr, ptr %9, align 8
  call void @list_destroy(ptr noundef %76)
  br label %77

77:                                               ; preds = %75, %72
  store ptr null, ptr %9, align 8
  br label %78

78:                                               ; preds = %77
  br label %79

79:                                               ; preds = %78
  %80 = load i8, ptr %7, align 1, !range !18, !noundef !19
  %81 = trunc i8 %80 to i1
  br i1 %81, label %82, label %86

82:                                               ; preds = %79
  %83 = load ptr, ptr @db_conn, align 8
  %84 = load ptr, ptr %5, align 8
  %85 = call i32 @slurmdb_associations_add(ptr noundef %83, ptr noundef %84)
  store i32 %85, ptr %14, align 4
  br label %86

86:                                               ; preds = %82, %79
  %87 = call i32 (ptr, ...) @printf(ptr noundef @.str.179)
  %88 = load i32, ptr %14, align 4
  store i32 %88, ptr %4, align 4
  store i32 1, ptr %15, align 4
  br label %89

89:                                               ; preds = %86, %24
  call void @llvm.lifetime.end.p0(i64 4, ptr %14) #9
  call void @llvm.lifetime.end.p0(i64 8, ptr %13) #9
  call void @llvm.lifetime.end.p0(i64 8, ptr %12) #9
  call void @llvm.lifetime.end.p0(i64 8, ptr %11) #9
  call void @llvm.lifetime.end.p0(i64 8, ptr %10) #9
  call void @llvm.lifetime.end.p0(i64 8, ptr %9) #9
  call void @llvm.lifetime.end.p0(i64 8, ptr %8) #9
  %90 = load i32, ptr %4, align 4
  ret i32 %90
}