; Function Attrs: nounwind uwtable
define internal fastcc i32 @_print_out_assoc(ptr noundef %0, i1 noundef zeroext %1, i1 noundef zeroext %2) unnamed_addr #0 {
  %.not = icmp eq ptr %0, null
  br i1 %.not, label %27, label %4

4:                                                ; preds = %3
  %5 = tail call i32 @list_count(ptr noundef nonnull %0) #12
  %.not30 = icmp eq i32 %5, 0
  br i1 %.not30, label %27, label %6

6:                                                ; preds = %4
  %7 = tail call ptr @list_create(ptr noundef nonnull @xfree_ptr) #12
  %.str.176..str.177 = select i1 %1, ptr @.str.176, ptr @.str.177
  %8 = tail call i32 @slurm_addto_char_list(ptr noundef %7, ptr noundef nonnull %.str.176..str.177) #12
  %9 = tail call i32 @slurm_addto_char_list(ptr noundef %7, ptr noundef nonnull @.str.178) #12
  %10 = tail call ptr @sacctmgr_process_format_list(ptr noundef %7) #12
  %.not31 = icmp eq ptr %7, null
  br i1 %.not31, label %12, label %11

11:                                               ; preds = %6
  tail call void @list_destroy(ptr noundef nonnull %7) #12
  br label %12

12:                                               ; preds = %11, %6
  tail call void @print_fields_header(ptr noundef %10) #12
  %13 = tail call ptr @list_iterator_create(ptr noundef nonnull %0) #12
  %14 = tail call ptr @list_iterator_create(ptr noundef %10) #12
  %15 = tail call ptr @list_next(ptr noundef %13) #12
  %.not3236 = icmp eq ptr %15, null
  br i1 %.not3236, label %._crit_edge37, label %.preheader

.preheader:                                       ; preds = %12, %._crit_edge
  %16 = phi ptr [ %20, %._crit_edge ], [ %15, %12 ]
  %17 = tail call ptr @list_next(ptr noundef %14) #12
  %.not3435 = icmp eq ptr %17, null
  br i1 %.not3435, label %._crit_edge, label %.lr.ph

.lr.ph:                                           ; preds = %.preheader, %.lr.ph
  %18 = phi ptr [ %19, %.lr.ph ], [ %17, %.preheader ]
  tail call void @sacctmgr_print_assoc_rec(ptr noundef nonnull %16, ptr noundef nonnull %18, ptr noundef null, i1 noundef zeroext false) #12
  %19 = tail call ptr @list_next(ptr noundef %14) #12
  %.not34 = icmp eq ptr %19, null
  br i1 %.not34, label %._crit_edge, label %.lr.ph, !llvm.loop !32

._crit_edge:                                      ; preds = %.lr.ph, %.preheader
  tail call void @list_iterator_reset(ptr noundef %14) #12
  %putchar = tail call i32 @putchar(i32 10)
  %20 = tail call ptr @list_next(ptr noundef %13) #12
  %.not32 = icmp eq ptr %20, null
  br i1 %.not32, label %._crit_edge37, label %.preheader, !llvm.loop !33

._crit_edge37:                                    ; preds = %._crit_edge, %12
  tail call void @list_iterator_destroy(ptr noundef %13) #12
  tail call void @list_iterator_destroy(ptr noundef %14) #12
  %.not33 = icmp eq ptr %10, null
  br i1 %.not33, label %22, label %21

21:                                               ; preds = %._crit_edge37
  tail call void @list_destroy(ptr noundef nonnull %10) #12
  br label %22

22:                                               ; preds = %21, %._crit_edge37
  br i1 %2, label %23, label %26

23:                                               ; preds = %22
  %24 = load ptr, ptr @db_conn, align 8
  %25 = tail call i32 @slurmdb_associations_add(ptr noundef %24, ptr noundef nonnull %0) #12
  br label %26

26:                                               ; preds = %23, %22
  %.0 = phi i32 [ %25, %23 ], [ 0, %22 ]
  %puts = tail call i32 @puts(ptr nonnull dereferenceable(1) @str.13)
  br label %27

27:                                               ; preds = %3, %4, %26
  %.025 = phi i32 [ %.0, %26 ], [ 0, %4 ], [ 0, %3 ]
  ret i32 %.025
}